; Function Attrs: nounwind sspstrong uwtable
define dso_local noundef ptr @rb_parser_st_copy(ptr noundef readonly captures(none) %0) local_unnamed_addr #0 {
  %2 = tail call noalias dereferenceable_or_null(56) ptr @malloc(i64 noundef 56) #24
  %3 = icmp eq ptr %2, null
  br i1 %3, label %12, label %4

4:                                                ; preds = %1
  %5 = tail call ptr @rb_parser_st_replace(ptr noundef nonnull %2, ptr noundef %0)
  %6 = icmp eq ptr %5, null
  br i1 %6, label %7, label %12

7:                                                ; preds = %4
  %8 = getelementptr inbounds nuw i8, ptr %2, i64 24
  %9 = load ptr, ptr %8, align 8, !tbaa !23
  tail call void @free(ptr noundef %9) #25
  %10 = getelementptr inbounds nuw i8, ptr %2, i64 48
  %11 = load ptr, ptr %10, align 8, !tbaa !25
  tail call void @free(ptr noundef %11) #25
  tail call void @free(ptr noundef nonnull %2) #25
  br label %12

12:                                               ; preds = %4, %1, %7
  %.0 = phi ptr [ null, %7 ], [ null, %1 ], [ %2, %4 ]
  ret ptr %.0
}